target datalayout = "e-m:e-p270:32:32-p271:32:32-p272:64:64-i64:64-i128:128-f80:128-n8:16:32:64-S128"
target triple = "x86_64-pc-linux-gnu"

%struct.redisContext = type { ptr, i32, [128 x i8], i32, i32, ptr, ptr, i32, ptr, ptr, %struct.anon, %struct.anon.0, ptr, i64, ptr, ptr, ptr, ptr }
%struct.anon = type { ptr, ptr, i32 }
%struct.anon.0 = type { ptr }
%struct.timeval = type { i64, i64 }

; Function Attrs: nounwind uwtable
define i32 @redisSetTimeout(ptr noundef %0, i64 %1, i64 %2) #0 {
  %4 = alloca i32, align 4
  %5 = alloca %struct.timeval, align 8
  %6 = alloca ptr, align 8
  %7 = getelementptr inbounds nuw { i64, i64 }, ptr %5, i32 0, i32 0
  store i64 %1, ptr %7, align 8
  %8 = getelementptr inbounds nuw { i64, i64 }, ptr %5, i32 0, i32 1
  store i64 %2, ptr %8, align 8
  store ptr %0, ptr %6, align 8, !tbaa !40
  %9 = load ptr, ptr %6, align 8, !tbaa !40
  %10 = getelementptr inbounds nuw %struct.redisContext, ptr %9, i32 0, i32 4
  %11 = load i32, ptr %10, align 8, !tbaa !68
  %12 = and i32 %11, 1
  %13 = icmp ne i32 %12, 0
  br i1 %13, label %14, label %21

14:                                               ; preds = %3
  %15 = load ptr, ptr %6, align 8, !tbaa !40
  %16 = getelementptr inbounds nuw { i64, i64 }, ptr %5, i32 0, i32 0
  %17 = load i64, ptr %16, align 8
  %18 = getelementptr inbounds nuw { i64, i64 }, ptr %5, i32 0, i32 1
  %19 = load i64, ptr %18, align 8
  %20 = call i32 @redisContextSetTimeout(ptr noundef %15, i64 %17, i64 %19)
  store i32 %20, ptr %4, align 4
  br label %22

21:                                               ; preds = %3
  store i32 -1, ptr %4, align 4
  br label %22

22:                                               ; preds = %21, %14
  %23 = load i32, ptr %4, align 4
  ret i32 %23
}