; Function Attrs: nounwind uwtable
define i32 @redisSetTimeout(ptr noundef %0, i64 %1, i64 %2) local_unnamed_addr #0 {
  %4 = getelementptr inbounds nuw i8, ptr %0, i64 144
  %5 = load i32, ptr %4, align 8, !tbaa !58
  %6 = and i32 %5, 1
  %.not = icmp eq i32 %6, 0
  br i1 %.not, label %9, label %7

7:                                                ; preds = %3
  %8 = tail call i32 @redisContextSetTimeout(ptr noundef nonnull %0, i64 %1, i64 %2) #13
  br label %9

9:                                                ; preds = %3, %7
  %.0 = phi i32 [ %8, %7 ], [ -1, %3 ]
  ret i32 %.0
}